Certificate:
    Data:
        Version: 3 (0x2)
        Serial Number: 0 (0x0)
    Signature Algorithm: sha256WithRSAEncryption
        Issuer: C=KR, ST=Seoul, L=Seoul, O=Suprema, OU=BTS, CN=Suprema's Self Signed CA/emailAddress=master@suprema.co.kr
        Validity
            Not Before: Jun 22 10:51:58 2016 GMT
            Not After : Jun 22 10:51:58 2017 GMT
        Subject: C=KR, ST=Seoul, O=Suprema, OU=BTS, CN=Suprema's Server CA/emailAddress=master@suprema.co.kr
        Subject Public Key Info:
            Public Key Algorithm: rsaEncryption
                Public-Key: (4096 bit)
                Modulus:
                    00:b2:c9:64:16:b4:5c:08:a7:4c:01:58:d0:a5:ca:
                    ab:c0:05:66:f3:37:8f:ba:cf:da:59:1e:3d:13:36:
                    c5:a5:41:f7:38:4f:ec:ba:dd:5b:97:84:d9:04:ef:
                    e4:22:33:91:75:c8:d5:e6:da:42:c1:3f:f2:fe:42:
                    9c:41:f5:8e:36:3f:8d:cb:69:52:9c:47:c0:2f:56:
                    e0:28:bd:4a:7e:8c:1a:98:ec:fd:65:25:23:60:14:
                    6b:48:48:88:e5:33:87:3d:7c:18:3e:e4:1e:fe:5d:
                    34:94:7f:ba:b3:ba:8f:31:71:b0:d7:01:d0:a7:b3:
                    b6:11:c4:b6:3f:e1:11:60:11:f3:c6:d4:a2:22:d2:
                    66:aa:d7:f9:da:af:38:6d:19:02:e1:fb:e0:5e:a2:
                    c1:18:0b:9a:f2:ee:c3:c2:a0:12:79:38:60:65:2d:
                    6d:c8:e9:6b:6b:e2:af:ec:05:01:3e:85:8d:cd:73:
                    e8:80:1c:62:88:8d:6e:85:49:82:28:ad:58:f2:54:
                    42:f5:23:b8:14:9a:ee:70:2b:c1:9a:46:c4:d9:7b:
                    95:36:66:9c:a9:1b:c8:ca:4b:f3:e0:f3:59:b8:bc:
                    3f:25:be:51:35:cf:3a:e6:0a:e8:32:8f:2b:ad:a3:
                    41:8c:54:56:21:2b:d8:13:7e:19:06:01:e9:ed:ca:
                    05:44:6b:1d:c4:fd:dc:2c:fc:60:5e:56:35:6a:fd:
                    ba:18:6f:df:0d:28:ba:b8:63:1d:3b:db:0f:70:af:
                    fb:cd:04:60:e8:74:2a:53:0b:64:9f:bf:9d:f4:96:
                    b6:41:c2:df:ce:1d:12:9b:48:88:1c:f1:e1:5a:53:
                    72:1f:ee:d3:06:62:fa:4b:38:6a:4c:dc:65:3b:fe:
                    7a:b2:e1:d1:97:cb:54:92:d5:fd:2b:40:89:ef:65:
                    b4:e4:db:11:ee:e0:4a:24:a6:f6:c4:ee:c0:83:79:
                    92:27:8d:4d:c9:ac:ec:59:c5:32:d4:8e:c7:80:31:
                    24:00:b8:3a:cd:00:8f:0b:64:d5:c8:3d:ad:40:86:
                    70:a9:8c:63:aa:11:ab:d7:4b:16:79:4d:c3:46:35:
                    e2:64:6d:7d:71:97:b5:d4:3f:4f:4e:1d:28:82:8e:
                    79:82:49:f2:71:15:8d:e0:e9:4e:0b:c1:61:46:b2:
                    03:18:e4:d8:95:1e:c2:68:f7:2f:3d:9a:16:80:e2:
                    bb:cc:d5:7e:60:4e:32:a0:f8:98:b0:9c:4a:ef:a6:
                    10:13:72:60:1e:e2:1e:59:c2:bf:53:14:ca:68:14:
                    17:e7:79:06:1b:a9:0f:53:2c:4f:c3:4f:12:7b:ae:
                    33:35:06:75:fa:20:4c:cd:3b:28:0b:b8:f6:9c:65:
                    eb:0b:1d
                Exponent: 65537 (0x10001)
        X509v3 extensions:
            X509v3 Basic Constraints: 
                CA:FALSE
            Netscape Comment: 
                OpenSSL Generated Certificate
            X509v3 Subject Key Identifier: 
                EB:AC:A8:2F:AE:6D:D4:28:6A:50:7F:35:E5:39:3C:AB:EF:A6:AD:E1
            X509v3 Authority Key Identifier: 
                keyid:4C:4B:85:C4:ED:61:52:09:37:C1:FB:73:5A:3B:AC:A9:6F:6A:86:4B

    Signature Algorithm: sha256WithRSAEncryption
         5c:b4:5d:98:0e:6b:bb:8a:55:2a:e5:c3:12:23:d2:0c:36:c6:
         ec:f2:ef:f6:b7:95:1a:93:94:24:80:d4:ae:ad:20:39:43:86:
         05:58:7c:7b:e4:bf:c4:96:cd:97:5d:81:21:82:96:7f:24:f4:
         f9:f1:4b:b0:c5:05:e3:8c:39:05:5d:c6:fc:ee:32:d1:68:1a:
         d6:2b:29:8b:55:f1:74:55:0b:bb:23:23:a1:24:6a:c5:8b:38:
         5b:c2:cd:03:e7:aa:4d:c7:53:ba:94:71:e6:f1:9a:e5:db:83:
         fa:87:b0:f1:ee:08:5f:a3:56:4e:7f:82:09:f0:f4:a2:97:f2:
         fd:08:dc:91:15:12:87:0e:38:89:cc:cf:e5:78:c6:d6:c4:58:
         0e:45:3e:d6:04:aa:22:69:c8:28:76:22:bd:f4:91:77:c2:7a:
         ab:45:87:f3:4b:d8:76:eb:ff:5f:32:3b:ea:ad:22:4d:83:8b:
         c8:82:f8:13:b4:6f:ea:8c:e4:bd:88:84:b8:be:ff:b1:fa:fa:
         21:4b:7a:43:5d:e5:47:c1:75:f7:4e:47:69:a9:65:a1:2d:3d:
         99:f8:30:4b:12:98:d1:ac:d7:4b:37:c1:ce:5b:a2:d2:2e:17:
         da:47:6d:15:ec:f6:ad:dc:13:d9:17:86:96:5c:87:c6:39:6f:
         ed:77:fd:67:f7:6a:b5:47:b8:3a:bf:be:15:8a:15:20:3c:27:
         20:a8:5f:48:a8:0f:1f:d6:35:da:0c:84:3d:ca:0d:10:2c:d7:
         27:be:94:df:01:c9:0f:4e:fc:c4:c5:9c:8a:e6:d6:cc:92:b3:
         4f:7e:63:dd:76:77:da:7f:ed:6d:58:7d:b3:14:ac:67:b7:e8:
         39:67:18:87:0f:69:e3:50:8b:6c:b0:83:2c:24:7d:f5:d7:c2:
         d6:ea:93:9c:c4:dc:57:f5:96:05:3c:89:69:0e:ba:ea:6f:bb:
         75:38:36:a7:9b:0a:02:ae:50:7b:2f:15:83:e4:8f:9a:9b:d7:
         f0:46:4b:dd:86:95:15:5f:d4:4c:d0:48:b3:a9:38:93:a3:3c:
         40:9b:29:04:ed:11:f6:66:13:96:4f:eb:e9:ed:58:21:45:48:
         28:49:0a:7f:3f:91:a7:a5:ad:e1:47:2e:ea:b0:b0:56:32:06:
         44:14:12:ac:2a:96:e4:57:25:63:d2:e1:ab:eb:a2:81:e0:f2:
         8a:ec:02:9a:25:c2:64:54:dd:e5:6f:f0:04:0a:47:4a:34:3d:
         36:df:14:3c:e7:9b:84:80:bf:ad:c6:92:9f:2d:50:7b:82:85:
         ff:b6:f7:0e:43:61:0a:3b:82:da:c1:1f:fc:cb:a6:ea:8f:b3:
         d8:a3:63:1c:b6:5f:ae:02
-----BEGIN CERTIFICATE-----
MIIGDTCCA/WgAwIBAgIBADANBgkqhkiG9w0BAQsFADCBlTELMAkGA1UEBhMCS1Ix
DjAMBgNVBAgMBVNlb3VsMQ4wDAYDVQQHDAVTZW91bDEQMA4GA1UECgwHU3VwcmVt
YTEMMAoGA1UECwwDQlRTMSEwHwYDVQQDDBhTdXByZW1hJ3MgU2VsZiBTaWduZWQg
Q0ExIzAhBgkqhkiG9w0BCQEWFG1hc3RlckBzdXByZW1hLmNvLmtyMB4XDTE2MDYy
MjEwNTE1OFoXDTE3MDYyMjEwNTE1OFowgYAxCzAJBgNVBAYTAktSMQ4wDAYDVQQI
DAVTZW91bDEQMA4GA1UECgwHU3VwcmVtYTEMMAoGA1UECwwDQlRTMRwwGgYDVQQD
DBNTdXByZW1hJ3MgU2VydmVyIENBMSMwIQYJKoZIhvcNAQkBFhRtYXN0ZXJAc3Vw
cmVtYS5jby5rcjCCAiIwDQYJKoZIhvcNAQEBBQADggIPADCCAgoCggIBALLJZBa0
XAinTAFY0KXKq8AFZvM3j7rP2lkePRM2xaVB9zhP7LrdW5eE2QTv5CIzkXXI1eba
QsE/8v5CnEH1jjY/jctpUpxHwC9W4Ci9Sn6MGpjs/WUlI2AUa0hIiOUzhz18GD7k
Hv5dNJR/urO6jzFxsNcB0KezthHEtj/hEWAR88bUoiLSZqrX+dqvOG0ZAuH74F6i
wRgLmvLuw8KgEnk4YGUtbcjpa2vir+wFAT6Fjc1z6IAcYoiNboVJgiitWPJUQvUj
uBSa7nArwZpGxNl7lTZmnKkbyMpL8+DzWbi8PyW+UTXPOuYK6DKPK62jQYxUViEr
2BN+GQYB6e3KBURrHcT93Cz8YF5WNWr9uhhv3w0ourhjHTvbD3Cv+80EYOh0KlML
ZJ+/nfSWtkHC384dEptIiBzx4VpTch/u0wZi+ks4akzcZTv+erLh0ZfLVJLV/StA
ie9ltOTbEe7gSiSm9sTuwIN5kieNTcms7FnFMtSOx4AxJAC4Os0Ajwtk1cg9rUCG
cKmMY6oRq9dLFnlNw0Y14mRtfXGXtdQ/T04dKIKOeYJJ8nEVjeDpTgvBYUayAxjk
2JUewmj3Lz2aFoDiu8zVfmBOMqD4mLCcSu+mEBNyYB7iHlnCv1MUymgUF+d5Bhup
D1MsT8NPEnuuMzUGdfogTM07KAu49pxl6wsdAgMBAAGjezB5MAkGA1UdEwQCMAAw
LAYJYIZIAYb4QgENBB8WHU9wZW5TU0wgR2VuZXJhdGVkIENlcnRpZmljYXRlMB0G
A1UdDgQWBBTrrKgvrm3UKGpQfzXlOTyr76at4TAfBgNVHSMEGDAWgBRMS4XE7WFS
CTfB+3NaO6ypb2qGSzANBgkqhkiG9w0BAQsFAAOCAgEAXLRdmA5ru4pVKuXDEiPS
DDbG7PLv9reVGpOUJIDUrq0gOUOGBVh8e+S/xJbNl12BIYKWfyT0+fFLsMUF44w5
BV3G/O4y0Wga1ispi1XxdFULuyMjoSRqxYs4W8LNA+eqTcdTupRx5vGa5duD+oew
8e4IX6NWTn+CCfD0opfy/QjckRUShw44iczP5XjG1sRYDkU+1gSqImnIKHYivfSR
d8J6q0WH80vYduv/XzI76q0iTYOLyIL4E7Rv6ozkvYiEuL7/sfr6IUt6Q13lR8F1
905HaalloS09mfgwSxKY0azXSzfBzlui0i4X2kdtFez2rdwT2ReGllyHxjlv7Xf9
Z/dqtUe4Or++FYoVIDwnIKhfSKgPH9Y12gyEPcoNECzXJ76U3wHJD078xMWciubW
zJKzT35j3XZ32n/tbVh9sxSsZ7foOWcYhw9p41CLbLCDLCR99dfC1uqTnMTcV/WW
BTyJaQ666m+7dTg2p5sKAq5Qey8Vg+SPmpvX8EZL3YaVFV/UTNBIs6k4k6M8QJsp
BO0R9mYTlk/r6e1YIUVIKEkKfz+Rp6Wt4Ucu6rCwVjIGRBQSrCqW5FclY9Lhq+ui
geDyiuwCmiXCZFTd5W/wBApHSjQ9Nt8UPOebhIC/rcaSny1Qe4KF/7b3DkNhCjuC
2sEf/Mum6o+z2KNjHLZfrgI=
-----END CERTIFICATE-----
